; Function Attrs: nounwind sspstrong uwtable
define dso_local zeroext i1 @cpu_virtio_is_big_endian(ptr noundef %cpu) local_unnamed_addr #0 {
entry:
  %call.i = tail call ptr @object_get_class(ptr noundef %cpu) #3
  %call1.i = tail call ptr @object_class_dynamic_cast_assert(ptr noundef %call.i, ptr noundef nonnull @.str.3, ptr noundef nonnull @.str.4, i32 noundef 64, ptr noundef nonnull @__func__.CPU_GET_CLASS) #3
  %sysemu_ops = getelementptr inbounds nuw i8, ptr %call1.i, i64 320
  %0 = load ptr, ptr %sysemu_ops, align 8
  %virtio_is_big_endian = getelementptr inbounds nuw i8, ptr %0, i64 80
  %1 = load ptr, ptr %virtio_is_big_endian, align 8
  %tobool.not = icmp eq ptr %1, null
  br i1 %tobool.not, label %if.end, label %if.then

if.then:                                          ; preds = %entry
  %call3 = tail call zeroext i1 %1(ptr noundef %cpu) #3
  br label %return

if.end:                                           ; preds = %entry
  %call4 = tail call zeroext i1 @target_words_bigendian() #3
  br label %return

return:                                           ; preds = %if.end, %if.then
  %retval.0 = phi i1 [ %call3, %if.then ], [ %call4, %if.end ]
  ret i1 %retval.0
}